; Function Attrs: nounwind uwtable
define internal range(i32 -2147483648, 1) i32 @process_command(ptr noundef %0, ptr noundef %1, ptr noundef %2, ptr noundef %3, i32 noundef %4, i32 noundef %5) #0 {
  %7 = tail call i32 @ff_filter_process_command(ptr noundef %0, ptr noundef %1, ptr noundef %2, ptr noundef %3, i32 noundef %4, i32 noundef %5) #12
  %8 = icmp slt i32 %7, 0
  br i1 %8, label %11, label %9

9:                                                ; preds = %6
  %10 = tail call fastcc i32 @param_init(ptr noundef %0)
  br label %11

11:                                               ; preds = %6, %9
  %.0 = phi i32 [ %10, %9 ], [ %7, %6 ]
  ret i32 %.0
}